target datalayout = "e-m:e-p270:32:32-p271:32:32-p272:64:64-i64:64-i128:128-f80:128-n8:16:32:64-S128"
target triple = "x86_64-pc-linux-gnu"

%class.Node.base = type <{ ptr, ptr, ptr, i32, i32, i32, i32, i32, i32, i32 }>
%class.Node = type <{ ptr, ptr, ptr, i32, i32, i32, i32, i32, i32, i32, [4 x i8] }>
%class.PhaseValues = type { %class.PhaseTransform, i8, ptr, ptr, [137 x ptr], [137 x ptr], [20 x ptr] }
%class.PhaseTransform = type { ptr, %class.Phase }
%class.Phase = type { i32, ptr }
%class.BoolNode = type { %class.Node.base, %struct.BoolTest }
%struct.BoolTest = type { i32 }
%class.Type_Array = type { ptr, i32, ptr }

@_ZN5TypeF4ZEROE = external global ptr, align 8
@_ZTV8AbsFNode = external unnamed_addr constant { [26 x ptr] }, align 8
@_ZTV7AbsNode = external unnamed_addr constant { [26 x ptr] }, align 8
@_ZTV8SubFNode = external unnamed_addr constant { [28 x ptr] }, align 8
@_ZTV9SubFPNode = external unnamed_addr constant { [28 x ptr] }, align 8
@_ZTV7SubNode = external unnamed_addr constant { [28 x ptr] }, align 8

; Function Attrs: mustprogress nounwind uwtable
define linkonce_odr hidden void @_ZN4Node13init_class_idEj(ptr noundef nonnull align 8 dereferenceable(52) %0, i32 noundef %1) #1 comdat align 2 {
  %3 = alloca ptr, align 8
  %4 = alloca i32, align 4
  store ptr %0, ptr %3, align 8
  store i32 %1, ptr %4, align 4
  %5 = load ptr, ptr %3, align 8
  %6 = load i32, ptr %4, align 4
  %7 = getelementptr inbounds %class.Node, ptr %5, i32 0, i32 8
  store i32 %6, ptr %7, align 4
  ret void
}

; Function Attrs: mustprogress nounwind uwtable
define linkonce_odr hidden void @_ZN7SubNodeC2EP4NodeS1_(ptr noundef nonnull align 8 dereferenceable(52) %0, ptr noundef %1, ptr noundef %2) unnamed_addr #1 comdat align 2 {
  %4 = alloca ptr, align 8
  %5 = alloca ptr, align 8
  %6 = alloca ptr, align 8
  store ptr %0, ptr %4, align 8
  store ptr %1, ptr %5, align 8
  store ptr %2, ptr %6, align 8
  %7 = load ptr, ptr %4, align 8
  %8 = load ptr, ptr %5, align 8
  %9 = load ptr, ptr %6, align 8
  call void @_ZN4NodeC2EPS_S0_S0_(ptr noundef nonnull align 8 dereferenceable(52) %7, ptr noundef null, ptr noundef %8, ptr noundef %9)
  store ptr getelementptr inbounds inrange(-16, 208) ({ [28 x ptr] }, ptr @_ZTV7SubNode, i32 0, i32 0, i32 2), ptr %7, align 8
  call void @_ZN4Node13init_class_idEj(ptr noundef nonnull align 8 dereferenceable(52) %7, i32 noundef 64)
  ret void
}

; Function Attrs: mustprogress nounwind uwtable
define linkonce_odr hidden void @_ZN9SubFPNodeC2EP4NodeS1_(ptr noundef nonnull align 8 dereferenceable(52) %0, ptr noundef %1, ptr noundef %2) unnamed_addr #1 comdat align 2 {
  %4 = alloca ptr, align 8
  %5 = alloca ptr, align 8
  %6 = alloca ptr, align 8
  store ptr %0, ptr %4, align 8
  store ptr %1, ptr %5, align 8
  store ptr %2, ptr %6, align 8
  %7 = load ptr, ptr %4, align 8
  %8 = load ptr, ptr %5, align 8
  %9 = load ptr, ptr %6, align 8
  call void @_ZN7SubNodeC2EP4NodeS1_(ptr noundef nonnull align 8 dereferenceable(52) %7, ptr noundef %8, ptr noundef %9)
  store ptr getelementptr inbounds inrange(-16, 208) ({ [28 x ptr] }, ptr @_ZTV9SubFPNode, i32 0, i32 0, i32 2), ptr %7, align 8
  ret void
}

; Function Attrs: mustprogress nounwind uwtable
define linkonce_odr hidden void @_ZN7AbsNodeC2EP4Node(ptr noundef nonnull align 8 dereferenceable(52) %0, ptr noundef %1) unnamed_addr #1 comdat align 2 {
  %3 = alloca ptr, align 8
  %4 = alloca ptr, align 8
  store ptr %0, ptr %3, align 8
  store ptr %1, ptr %4, align 8
  %5 = load ptr, ptr %3, align 8
  %6 = load ptr, ptr %4, align 8
  call void @_ZN4NodeC2EPS_S0_(ptr noundef nonnull align 8 dereferenceable(52) %5, ptr noundef null, ptr noundef %6)
  store ptr getelementptr inbounds inrange(-16, 192) ({ [26 x ptr] }, ptr @_ZTV7AbsNode, i32 0, i32 0, i32 2), ptr %5, align 8
  ret void
}

; Function Attrs: mustprogress nounwind uwtable
define linkonce_odr hidden noundef ptr @_ZNK10Type_Array11fast_lookupEj(ptr noundef nonnull align 8 dereferenceable(24) %0, i32 noundef %1) #1 comdat align 2 {
  %3 = alloca ptr, align 8
  %4 = alloca i32, align 4
  store ptr %0, ptr %3, align 8
  store i32 %1, ptr %4, align 4
  %5 = load ptr, ptr %3, align 8
  %6 = getelementptr inbounds %class.Type_Array, ptr %5, i32 0, i32 2
  %7 = load ptr, ptr %6, align 8
  %8 = load i32, ptr %4, align 4
  %9 = zext i32 %8 to i64
  %10 = getelementptr inbounds ptr, ptr %7, i64 %9
  %11 = load ptr, ptr %10, align 8
  ret ptr %11
}

; Function Attrs: mustprogress nounwind uwtable
define linkonce_odr hidden void @_ZN8SubFNodeC2EP4NodeS1_(ptr noundef nonnull align 8 dereferenceable(52) %0, ptr noundef %1, ptr noundef %2) unnamed_addr #1 comdat align 2 {
  %4 = alloca ptr, align 8
  %5 = alloca ptr, align 8
  %6 = alloca ptr, align 8
  store ptr %0, ptr %4, align 8
  store ptr %1, ptr %5, align 8
  store ptr %2, ptr %6, align 8
  %7 = load ptr, ptr %4, align 8
  %8 = load ptr, ptr %5, align 8
  %9 = load ptr, ptr %6, align 8
  call void @_ZN9SubFPNodeC2EP4NodeS1_(ptr noundef nonnull align 8 dereferenceable(52) %7, ptr noundef %8, ptr noundef %9)
  store ptr getelementptr inbounds inrange(-16, 208) ({ [28 x ptr] }, ptr @_ZTV8SubFNode, i32 0, i32 0, i32 2), ptr %7, align 8
  ret void
}

; Function Attrs: mustprogress nounwind uwtable
define linkonce_odr hidden void @_ZN8AbsFNodeC2EP4Node(ptr noundef nonnull align 8 dereferenceable(52) %0, ptr noundef %1) unnamed_addr #1 comdat align 2 {
  %3 = alloca ptr, align 8
  %4 = alloca ptr, align 8
  store ptr %0, ptr %3, align 8
  store ptr %1, ptr %4, align 8
  %5 = load ptr, ptr %3, align 8
  %6 = load ptr, ptr %4, align 8
  call void @_ZN7AbsNodeC2EP4Node(ptr noundef nonnull align 8 dereferenceable(52) %5, ptr noundef %6)
  store ptr getelementptr inbounds inrange(-16, 192) ({ [26 x ptr] }, ptr @_ZTV8AbsFNode, i32 0, i32 0, i32 2), ptr %5, align 8
  ret void
}

; Function Attrs: mustprogress nounwind uwtable
define linkonce_odr hidden noundef ptr @_ZNK11PhaseValues4typeEPK4Node(ptr noundef nonnull align 8 dereferenceable(2400) %0, ptr noundef %1) #1 comdat align 2 {
  %3 = alloca ptr, align 8
  %4 = alloca ptr, align 8
  %5 = alloca ptr, align 8
  store ptr %0, ptr %3, align 8
  store ptr %1, ptr %4, align 8
  %6 = load ptr, ptr %3, align 8
  %7 = getelementptr inbounds %class.PhaseValues, ptr %6, i32 0, i32 3
  %8 = load ptr, ptr %7, align 8
  %9 = load ptr, ptr %4, align 8
  %10 = getelementptr inbounds %class.Node, ptr %9, i32 0, i32 7
  %11 = load i32, ptr %10, align 8
  %12 = call noundef ptr @_ZNK10Type_Array11fast_lookupEj(ptr noundef nonnull align 8 dereferenceable(24) %8, i32 noundef %11)
  store ptr %12, ptr %5, align 8
  %13 = load ptr, ptr %5, align 8
  ret ptr %13
}

; Function Attrs: mustprogress nounwind uwtable
define linkonce_odr hidden noundef ptr @_ZNK4Node7as_BoolEv(ptr noundef nonnull align 8 dereferenceable(52) %0) #1 comdat align 2 {
  %2 = alloca ptr, align 8
  store ptr %0, ptr %2, align 8
  %3 = load ptr, ptr %2, align 8
  ret ptr %3
}

; Function Attrs: mustprogress nounwind uwtable
define linkonce_odr hidden noundef zeroext i1 @_ZNK4Node7is_BoolEv(ptr noundef nonnull align 8 dereferenceable(52) %0) #1 comdat align 2 {
  %2 = alloca ptr, align 8
  store ptr %0, ptr %2, align 8
  %3 = load ptr, ptr %2, align 8
  %4 = getelementptr inbounds %class.Node, ptr %3, i32 0, i32 8
  %5 = load i32, ptr %4, align 4
  %6 = and i32 %5, 511
  %7 = icmp eq i32 %6, 256
  ret i1 %7
}

; Function Attrs: mustprogress nounwind uwtable
define linkonce_odr hidden noundef ptr @_ZNK4Node2inEj(ptr noundef nonnull align 8 dereferenceable(52) %0, i32 noundef %1) #1 comdat align 2 {
  %3 = alloca ptr, align 8
  %4 = alloca i32, align 4
  store ptr %0, ptr %3, align 8
  store i32 %1, ptr %4, align 4
  %5 = load ptr, ptr %3, align 8
  %6 = getelementptr inbounds %class.Node, ptr %5, i32 0, i32 1
  %7 = load ptr, ptr %6, align 8
  %8 = load i32, ptr %4, align 4
  %9 = zext i32 %8 to i64
  %10 = getelementptr inbounds ptr, ptr %7, i64 %9
  %11 = load ptr, ptr %10, align 8
  ret ptr %11
}

; Function Attrs: mustprogress nounwind uwtable
define hidden noundef ptr @_ZN10CMoveFNode5IdealEP8PhaseGVNb(ptr noundef nonnull align 8 dereferenceable(64) %0, ptr noundef %1, i1 noundef zeroext %2) unnamed_addr #1 align 2 {
  %4 = alloca ptr, align 8
  %5 = alloca ptr, align 8
  %6 = alloca ptr, align 8
  %7 = alloca i8, align 1
  %8 = alloca ptr, align 8
  %9 = alloca i32, align 4
  %10 = alloca i32, align 4
  %11 = alloca ptr, align 8
  %12 = alloca ptr, align 8
  %13 = alloca ptr, align 8
  %14 = alloca i8, align 1
  %15 = alloca i32, align 4
  %16 = alloca ptr, align 8
  %17 = alloca ptr, align 8
  store ptr %0, ptr %5, align 8
  store ptr %1, ptr %6, align 8
  %18 = zext i1 %2 to i8
  store i8 %18, ptr %7, align 1
  %19 = load ptr, ptr %5, align 8
  %20 = load ptr, ptr %6, align 8
  %21 = load i8, ptr %7, align 1
  %22 = trunc i8 %21 to i1
  %23 = call noundef ptr @_ZN9CMoveNode5IdealEP8PhaseGVNb(ptr noundef nonnull align 8 dereferenceable(64) %19, ptr noundef %20, i1 noundef zeroext %22)
  store ptr %23, ptr %8, align 8
  %24 = load ptr, ptr %8, align 8
  %25 = icmp ne ptr %24, null
  br i1 %25, label %26, label %28

26:                                               ; preds = %3
  %27 = load ptr, ptr %8, align 8
  store ptr %27, ptr %4, align 8
  br label %138

28:                                               ; preds = %3
  store i32 0, ptr %9, align 4
  store i32 0, ptr %10, align 4
  %29 = call noundef ptr @_ZNK4Node2inEj(ptr noundef nonnull align 8 dereferenceable(52) %19, i32 noundef 1)
  %30 = call noundef zeroext i1 @_ZNK4Node7is_BoolEv(ptr noundef nonnull align 8 dereferenceable(52) %29)
  br i1 %30, label %32, label %31

31:                                               ; preds = %28
  store ptr null, ptr %4, align 8
  br label %138

32:                                               ; preds = %28
  %33 = call noundef ptr @_ZNK4Node2inEj(ptr noundef nonnull align 8 dereferenceable(52) %19, i32 noundef 1)
  %34 = call noundef ptr @_ZNK4Node7as_BoolEv(ptr noundef nonnull align 8 dereferenceable(52) %33)
  store ptr %34, ptr %11, align 8
  %35 = load ptr, ptr %11, align 8
  %36 = getelementptr inbounds %class.BoolNode, ptr %35, i32 0, i32 1
  %37 = getelementptr inbounds %struct.BoolTest, ptr %36, i32 0, i32 0
  %38 = load i32, ptr %37, align 4
  switch i32 %38, label %43 [
    i32 3, label %39
    i32 5, label %40
    i32 1, label %41
    i32 7, label %42
  ]

39:                                               ; preds = %32
  store i32 1, ptr %9, align 4
  store i32 3, ptr %10, align 4
  br label %44

40:                                               ; preds = %32
  store i32 2, ptr %9, align 4
  store i32 2, ptr %10, align 4
  br label %44

41:                                               ; preds = %32
  store i32 2, ptr %9, align 4
  store i32 3, ptr %10, align 4
  br label %44

42:                                               ; preds = %32
  store i32 1, ptr %9, align 4
  store i32 2, ptr %10, align 4
  br label %44

43:                                               ; preds = %32
  store ptr null, ptr %4, align 8
  br label %138

44:                                               ; preds = %42, %41, %40, %39
  %45 = load ptr, ptr %11, align 8
  %46 = call noundef ptr @_ZNK4Node2inEj(ptr noundef nonnull align 8 dereferenceable(52) %45, i32 noundef 1)
  store ptr %46, ptr %12, align 8
  %47 = load ptr, ptr %12, align 8
  %48 = load ptr, ptr %47, align 8
  %49 = getelementptr inbounds ptr, ptr %48, i64 0
  %50 = load ptr, ptr %49, align 8
  %51 = call noundef i32 %50(ptr noundef nonnull align 8 dereferenceable(52) %47)
  %52 = icmp ne i32 %51, 79
  br i1 %52, label %53, label %54

53:                                               ; preds = %44
  store ptr null, ptr %4, align 8
  br label %138

54:                                               ; preds = %44
  store ptr null, ptr %13, align 8
  store i8 0, ptr %14, align 1
  %55 = load ptr, ptr %6, align 8
  %56 = load ptr, ptr %12, align 8
  %57 = load i32, ptr %9, align 4
  %58 = call noundef ptr @_ZNK4Node2inEj(ptr noundef nonnull align 8 dereferenceable(52) %56, i32 noundef %57)
  %59 = call noundef ptr @_ZNK11PhaseValues4typeEPK4Node(ptr noundef nonnull align 8 dereferenceable(2400) %55, ptr noundef %58)
  %60 = load ptr, ptr @_ZN5TypeF4ZEROE, align 8
  %61 = icmp eq ptr %59, %60
  br i1 %61, label %62, label %67

62:                                               ; preds = %54
  %63 = load ptr, ptr %12, align 8
  %64 = load i32, ptr %9, align 4
  %65 = sub nsw i32 3, %64
  %66 = call noundef ptr @_ZNK4Node2inEj(ptr noundef nonnull align 8 dereferenceable(52) %63, i32 noundef %65)
  store ptr %66, ptr %13, align 8
  br label %82

67:                                               ; preds = %54
  %68 = load ptr, ptr %6, align 8
  %69 = load ptr, ptr %12, align 8
  %70 = load i32, ptr %9, align 4
  %71 = sub nsw i32 3, %70
  %72 = call noundef ptr @_ZNK4Node2inEj(ptr noundef nonnull align 8 dereferenceable(52) %69, i32 noundef %71)
  %73 = call noundef ptr @_ZNK11PhaseValues4typeEPK4Node(ptr noundef nonnull align 8 dereferenceable(2400) %68, ptr noundef %72)
  %74 = load ptr, ptr @_ZN5TypeF4ZEROE, align 8
  %75 = icmp eq ptr %73, %74
  br i1 %75, label %76, label %80

76:                                               ; preds = %67
  %77 = load ptr, ptr %12, align 8
  %78 = load i32, ptr %9, align 4
  %79 = call noundef ptr @_ZNK4Node2inEj(ptr noundef nonnull align 8 dereferenceable(52) %77, i32 noundef %78)
  store ptr %79, ptr %13, align 8
  store i8 1, ptr %14, align 1
  br label %81

80:                                               ; preds = %67
  store ptr null, ptr %4, align 8
  br label %138

81:                                               ; preds = %76
  br label %82

82:                                               ; preds = %81, %62
  %83 = load ptr, ptr %13, align 8
  %84 = load i32, ptr %10, align 4
  %85 = call noundef ptr @_ZNK4Node2inEj(ptr noundef nonnull align 8 dereferenceable(52) %19, i32 noundef %84)
  %86 = icmp ne ptr %83, %85
  br i1 %86, label %87, label %88

87:                                               ; preds = %82
  store ptr null, ptr %4, align 8
  br label %138

88:                                               ; preds = %82
  %89 = load i32, ptr %10, align 4
  %90 = icmp eq i32 %89, 3
  %91 = select i1 %90, i32 2, i32 3
  store i32 %91, ptr %15, align 4
  %92 = load i32, ptr %15, align 4
  %93 = call noundef ptr @_ZNK4Node2inEj(ptr noundef nonnull align 8 dereferenceable(52) %19, i32 noundef %92)
  store ptr %93, ptr %16, align 8
  %94 = load ptr, ptr %16, align 8
  %95 = load ptr, ptr %94, align 8
  %96 = getelementptr inbounds ptr, ptr %95, i64 0
  %97 = load ptr, ptr %96, align 8
  %98 = call noundef i32 %97(ptr noundef nonnull align 8 dereferenceable(52) %94)
  %99 = icmp ne i32 %98, 341
  br i1 %99, label %112, label %100

100:                                              ; preds = %88
  %101 = load ptr, ptr %16, align 8
  %102 = call noundef ptr @_ZNK4Node2inEj(ptr noundef nonnull align 8 dereferenceable(52) %101, i32 noundef 2)
  %103 = load ptr, ptr %13, align 8
  %104 = icmp ne ptr %102, %103
  br i1 %104, label %112, label %105

105:                                              ; preds = %100
  %106 = load ptr, ptr %6, align 8
  %107 = load ptr, ptr %16, align 8
  %108 = call noundef ptr @_ZNK4Node2inEj(ptr noundef nonnull align 8 dereferenceable(52) %107, i32 noundef 1)
  %109 = call noundef ptr @_ZNK11PhaseValues4typeEPK4Node(ptr noundef nonnull align 8 dereferenceable(2400) %106, ptr noundef %108)
  %110 = load ptr, ptr @_ZN5TypeF4ZEROE, align 8
  %111 = icmp ne ptr %109, %110
  br i1 %111, label %112, label %113

112:                                              ; preds = %105, %100, %88
  store ptr null, ptr %4, align 8
  br label %138

113:                                              ; preds = %105
  %114 = call noundef ptr @_ZN4NodenwEm(i64 noundef 56) #5
  %115 = icmp eq ptr %114, null
  br i1 %115, label %118, label %116

116:                                              ; preds = %113
  %117 = load ptr, ptr %13, align 8
  call void @_ZN8AbsFNodeC2EP4Node(ptr noundef nonnull align 8 dereferenceable(52) %114, ptr noundef %117)
  br label %118

118:                                              ; preds = %116, %113
  %119 = phi ptr [ %114, %116 ], [ null, %113 ]
  store ptr %119, ptr %17, align 8
  %120 = load i8, ptr %14, align 1
  %121 = trunc i8 %120 to i1
  br i1 %121, label %122, label %136

122:                                              ; preds = %118
  %123 = call noundef ptr @_ZN4NodenwEm(i64 noundef 56) #5
  %124 = icmp eq ptr %123, null
  br i1 %124, label %134, label %125

125:                                              ; preds = %122
  %126 = load ptr, ptr %16, align 8
  %127 = call noundef ptr @_ZNK4Node2inEj(ptr noundef nonnull align 8 dereferenceable(52) %126, i32 noundef 1)
  %128 = load ptr, ptr %6, align 8
  %129 = load ptr, ptr %17, align 8
  %130 = load ptr, ptr %128, align 8
  %131 = getelementptr inbounds ptr, ptr %130, i64 0
  %132 = load ptr, ptr %131, align 8
  %133 = call noundef ptr %132(ptr noundef nonnull align 8 dereferenceable(2400) %128, ptr noundef %129)
  call void @_ZN8SubFNodeC2EP4NodeS1_(ptr noundef nonnull align 8 dereferenceable(52) %123, ptr noundef %127, ptr noundef %133)
  br label %134

134:                                              ; preds = %125, %122
  %135 = phi ptr [ %123, %125 ], [ null, %122 ]
  store ptr %135, ptr %17, align 8
  br label %136

136:                                              ; preds = %134, %118
  %137 = load ptr, ptr %17, align 8
  store ptr %137, ptr %4, align 8
  br label %138

138:                                              ; preds = %136, %112, %87, %80, %53, %43, %31, %26
  %139 = load ptr, ptr %4, align 8
  ret ptr %139
}