; Function Attrs: mustprogress nounwind uwtable
define hidden noundef ptr @_ZN10CMoveFNode5IdealEP8PhaseGVNb(ptr noundef nonnull align 8 dereferenceable(64) %0, ptr noundef %1, i1 noundef zeroext %2) unnamed_addr #0 align 2 {
  %4 = tail call noundef ptr @_ZN9CMoveNode5IdealEP8PhaseGVNb(ptr noundef nonnull align 8 dereferenceable(64) %0, ptr noundef %1, i1 noundef zeroext %2)
  %.not = icmp eq ptr %4, null
  br i1 %.not, label %5, label %98

5:                                                ; preds = %3
  %6 = getelementptr inbounds i8, ptr %0, i64 8
  %7 = load ptr, ptr %6, align 8
  %8 = getelementptr inbounds i8, ptr %7, i64 8
  %9 = load ptr, ptr %8, align 8
  %10 = getelementptr inbounds i8, ptr %9, i64 44
  %11 = load i32, ptr %10, align 4
  %12 = and i32 %11, 511
  %13 = icmp eq i32 %12, 256
  br i1 %13, label %14, label %98

14:                                               ; preds = %5
  %15 = getelementptr inbounds i8, ptr %9, i64 52
  %16 = load i32, ptr %15, align 4
  %switch.tableidx = add i32 %16, -1
  %17 = icmp ult i32 %switch.tableidx, 7
  br i1 %17, label %switch.hole_check, label %98

switch.hole_check:                                ; preds = %14
  %switch.maskindex = trunc nuw i32 %switch.tableidx to i8
  %switch.shifted = lshr i8 85, %switch.maskindex
  %switch.lobit = trunc i8 %switch.shifted to i1
  br i1 %switch.lobit, label %switch.lookup, label %98

switch.lookup:                                    ; preds = %switch.hole_check
  %18 = zext nneg i32 %switch.tableidx to i64
  %switch.gep = getelementptr inbounds [7 x i64], ptr @switch.table._ZN10CMoveDNode5IdealEP8PhaseGVNb, i64 0, i64 %18
  %switch.load = load i64, ptr %switch.gep, align 8
  %19 = zext nneg i32 %switch.tableidx to i64
  %switch.gep47 = getelementptr inbounds [7 x i64], ptr @switch.table._ZN10CMoveDNode5IdealEP8PhaseGVNb.3, i64 0, i64 %19
  %switch.load48 = load i64, ptr %switch.gep47, align 8
  %20 = zext nneg i32 %switch.tableidx to i64
  %switch.gep49 = getelementptr inbounds [7 x i32], ptr @switch.table._ZN10CMoveDNode5IdealEP8PhaseGVNb.4, i64 0, i64 %20
  %switch.load50 = load i32, ptr %switch.gep49, align 4
  %21 = getelementptr inbounds i8, ptr %9, i64 8
  %22 = load ptr, ptr %21, align 8
  %23 = getelementptr inbounds i8, ptr %22, i64 8
  %24 = load ptr, ptr %23, align 8
  %25 = load ptr, ptr %24, align 8
  %26 = load ptr, ptr %25, align 8
  %27 = tail call noundef i32 %26(ptr noundef nonnull align 8 dereferenceable(52) %24) #5
  %.not41 = icmp eq i32 %27, 79
  br i1 %.not41, label %28, label %98

28:                                               ; preds = %switch.lookup
  %29 = getelementptr inbounds i8, ptr %24, i64 8
  %30 = load ptr, ptr %29, align 8
  %31 = zext nneg i32 %switch.load50 to i64
  %32 = getelementptr inbounds ptr, ptr %30, i64 %31
  %33 = load ptr, ptr %32, align 8
  %34 = getelementptr inbounds i8, ptr %1, i64 40
  %35 = load ptr, ptr %34, align 8
  %36 = getelementptr inbounds i8, ptr %33, i64 40
  %37 = load i32, ptr %36, align 8
  %38 = getelementptr inbounds i8, ptr %35, i64 16
  %39 = load ptr, ptr %38, align 8
  %40 = zext i32 %37 to i64
  %41 = getelementptr inbounds ptr, ptr %39, i64 %40
  %42 = load ptr, ptr %41, align 8
  %43 = load ptr, ptr @_ZN5TypeF4ZEROE, align 8
  %.not46 = icmp eq ptr %42, %43
  %44 = xor i32 %switch.load50, 3
  %45 = zext nneg i32 %44 to i64
  %46 = getelementptr inbounds ptr, ptr %30, i64 %45
  %47 = load ptr, ptr %46, align 8
  br i1 %.not46, label %55, label %48

48:                                               ; preds = %28
  %49 = getelementptr inbounds i8, ptr %47, i64 40
  %50 = load i32, ptr %49, align 8
  %51 = zext i32 %50 to i64
  %52 = getelementptr inbounds ptr, ptr %39, i64 %51
  %53 = load ptr, ptr %52, align 8
  %54 = icmp eq ptr %53, %43
  br i1 %54, label %55, label %98

55:                                               ; preds = %28, %48
  %.036 = phi ptr [ %33, %48 ], [ %47, %28 ]
  %56 = load ptr, ptr %6, align 8
  %57 = getelementptr inbounds ptr, ptr %56, i64 %switch.load48
  %58 = load ptr, ptr %57, align 8
  %.not42 = icmp eq ptr %.036, %58
  br i1 %.not42, label %59, label %98

59:                                               ; preds = %55
  %60 = getelementptr inbounds ptr, ptr %56, i64 %switch.load
  %61 = load ptr, ptr %60, align 8
  %62 = load ptr, ptr %61, align 8
  %63 = load ptr, ptr %62, align 8
  %64 = tail call noundef i32 %63(ptr noundef nonnull align 8 dereferenceable(52) %61) #5
  %.not43 = icmp eq i32 %64, 341
  br i1 %.not43, label %65, label %98

65:                                               ; preds = %59
  %66 = getelementptr inbounds i8, ptr %61, i64 8
  %67 = load ptr, ptr %66, align 8
  %68 = getelementptr inbounds i8, ptr %67, i64 16
  %69 = load ptr, ptr %68, align 8
  %.not44 = icmp eq ptr %69, %.036
  br i1 %.not44, label %70, label %98

70:                                               ; preds = %65
  %71 = getelementptr inbounds i8, ptr %67, i64 8
  %72 = load ptr, ptr %71, align 8
  %73 = load ptr, ptr %34, align 8
  %74 = getelementptr inbounds i8, ptr %72, i64 40
  %75 = load i32, ptr %74, align 8
  %76 = getelementptr inbounds i8, ptr %73, i64 16
  %77 = load ptr, ptr %76, align 8
  %78 = zext i32 %75 to i64
  %79 = getelementptr inbounds ptr, ptr %77, i64 %78
  %80 = load ptr, ptr %79, align 8
  %81 = load ptr, ptr @_ZN5TypeF4ZEROE, align 8
  %.not45 = icmp eq ptr %80, %81
  br i1 %.not45, label %82, label %98

82:                                               ; preds = %70
  %83 = tail call noundef ptr @_ZN4NodenwEm(i64 noundef 56) #5
  %84 = icmp eq ptr %83, null
  br i1 %84, label %86, label %85

85:                                               ; preds = %82
  tail call void @_ZN4NodeC2EPS_S0_(ptr noundef nonnull align 8 dereferenceable(52) %83, ptr noundef null, ptr noundef %.036) #5
  store ptr getelementptr inbounds inrange(-16, 192) (i8, ptr @_ZTV8AbsFNode, i64 16), ptr %83, align 8
  br label %86

86:                                               ; preds = %85, %82
  br i1 %.not46, label %98, label %87

87:                                               ; preds = %86
  %88 = tail call noundef ptr @_ZN4NodenwEm(i64 noundef 56) #5
  %89 = icmp eq ptr %88, null
  br i1 %89, label %98, label %90

90:                                               ; preds = %87
  %91 = load ptr, ptr %66, align 8
  %92 = getelementptr inbounds i8, ptr %91, i64 8
  %93 = load ptr, ptr %92, align 8
  %94 = load ptr, ptr %1, align 8
  %95 = load ptr, ptr %94, align 8
  %96 = tail call noundef ptr %95(ptr noundef nonnull align 8 dereferenceable(2400) %1, ptr noundef %83) #5
  tail call void @_ZN4NodeC2EPS_S0_S0_(ptr noundef nonnull align 8 dereferenceable(52) %88, ptr noundef null, ptr noundef %93, ptr noundef %96) #5
  %97 = getelementptr inbounds i8, ptr %88, i64 44
  store i32 64, ptr %97, align 4
  store ptr getelementptr inbounds inrange(-16, 208) (i8, ptr @_ZTV8SubFNode, i64 16), ptr %88, align 8
  br label %98

98:                                               ; preds = %switch.hole_check, %14, %86, %90, %87, %59, %65, %70, %55, %48, %switch.lookup, %5, %3
  %.033 = phi ptr [ %4, %3 ], [ null, %5 ], [ null, %14 ], [ null, %switch.lookup ], [ null, %48 ], [ null, %55 ], [ null, %70 ], [ null, %65 ], [ null, %59 ], [ %83, %86 ], [ %88, %90 ], [ null, %87 ], [ null, %switch.hole_check ]
  ret ptr %.033
}